; Function Attrs: mustprogress nofree norecurse nosync nounwind willreturn memory(read, argmem: readwrite, inaccessiblemem: none) uwtable
define internal noundef i32 @t1_cmap_expert_init(ptr noundef captures(none) initializes((24, 44), (48, 56)) %0, ptr readnone captures(none) %1) #6 {
  %3 = load ptr, ptr %0, align 8
  %4 = getelementptr inbounds nuw i8, ptr %3, i64 776
  %5 = load ptr, ptr %4, align 8
  %6 = getelementptr inbounds nuw i8, ptr %3, i64 640
  %7 = load i32, ptr %6, align 8
  %8 = getelementptr inbounds nuw i8, ptr %0, i64 40
  store i32 %7, ptr %8, align 8
  %9 = getelementptr inbounds nuw i8, ptr %3, i64 648
  %10 = load ptr, ptr %9, align 8
  %11 = getelementptr inbounds nuw i8, ptr %0, i64 48
  store ptr %10, ptr %11, align 8
  %12 = getelementptr inbounds nuw i8, ptr %5, i64 40
  %13 = load ptr, ptr %12, align 8
  %14 = getelementptr inbounds nuw i8, ptr %0, i64 32
  store ptr %13, ptr %14, align 8
  %.in.i = getelementptr inbounds nuw i8, ptr %5, i64 56
  %15 = load ptr, ptr %.in.i, align 8
  %16 = getelementptr inbounds nuw i8, ptr %0, i64 24
  store ptr %15, ptr %16, align 8
  ret i32 0
}